target datalayout = "e-m:e-p270:32:32-p271:32:32-p272:64:64-i64:64-i128:128-f80:128-n8:16:32:64-S128"
target triple = "x86_64-pc-linux-gnu"

%struct.ossl_param_st = type { ptr, i32, ptr, i64, i64 }

@libctx = internal global ptr null, align 8
@.str.24 = private unnamed_addr constant [34 x i8] c"../openssl/test/evp_libctx_test.c\00", align 1
@.str.34 = private unnamed_addr constant [2 x i8] c"0\00", align 1
@.str.63 = private unnamed_addr constant [27 x i8] c"ctx = EVP_CIPHER_CTX_new()\00", align 1
@.str.159 = private unnamed_addr constant [14 x i8] c"encrypt-check\00", align 1
@.str.160 = private unnamed_addr constant [59 x i8] c"aes_cipher = EVP_CIPHER_fetch(libctx, \22AES-256-CBC\22, NULL)\00", align 1
@.str.161 = private unnamed_addr constant [12 x i8] c"AES-256-CBC\00", align 1
@.str.162 = private unnamed_addr constant [53 x i8] c"EVP_CIPHER_get_flags(aes_cipher) & EVP_CIPH_RAND_KEY\00", align 1
@.str.163 = private unnamed_addr constant [61 x i8] c"tdes_cipher = EVP_CIPHER_fetch(libctx, \22DES-EDE3-CBC\22, NULL)\00", align 1
@.str.164 = private unnamed_addr constant [13 x i8] c"DES-EDE3-CBC\00", align 1
@.str.165 = private unnamed_addr constant [54 x i8] c"EVP_CIPHER_get_flags(tdes_cipher) & EVP_CIPH_RAND_KEY\00", align 1
@.str.166 = private unnamed_addr constant [60 x i8] c"EVP_CipherInit_ex2(ctx, tdes_cipher, NULL, NULL, 1, params)\00", align 1
@.str.167 = private unnamed_addr constant [34 x i8] c"EVP_CIPHER_CTX_rand_key(ctx, key)\00", align 1

; Function Attrs: nounwind uwtable
define internal i32 @test_cipher_tdes_randkey() #0 {
  %1 = alloca i32, align 4
  %2 = alloca ptr, align 8
  %3 = alloca ptr, align 8
  %4 = alloca ptr, align 8
  %5 = alloca [24 x i8], align 16
  %6 = alloca [2 x %struct.ossl_param_st], align 16
  %7 = alloca i32, align 4
  %8 = alloca %struct.ossl_param_st, align 8
  %9 = alloca %struct.ossl_param_st, align 8
  call void @llvm.lifetime.start.p0(i64 4, ptr %1) #7
  call void @llvm.lifetime.start.p0(i64 8, ptr %2) #7
  store ptr null, ptr %2, align 8, !tbaa !17
  call void @llvm.lifetime.start.p0(i64 8, ptr %3) #7
  store ptr null, ptr %3, align 8, !tbaa !34
  call void @llvm.lifetime.start.p0(i64 8, ptr %4) #7
  store ptr null, ptr %4, align 8, !tbaa !34
  call void @llvm.lifetime.start.p0(i64 24, ptr %5) #7
  call void @llvm.memset.p0.i64(ptr align 16 %5, i8 0, i64 24, i1 false)
  call void @llvm.lifetime.start.p0(i64 80, ptr %6) #7
  call void @llvm.lifetime.start.p0(i64 4, ptr %7) #7
  store i32 0, ptr %7, align 4, !tbaa !9
  %10 = getelementptr inbounds [2 x %struct.ossl_param_st], ptr %6, i64 0, i64 0
  call void @llvm.lifetime.start.p0(i64 40, ptr %8) #7
  call void @OSSL_PARAM_construct_int(ptr dead_on_unwind writable sret(%struct.ossl_param_st) align 8 %8, ptr noundef @.str.159, ptr noundef %7)
  call void @llvm.memcpy.p0.p0.i64(ptr align 16 %10, ptr align 8 %8, i64 40, i1 false), !tbaa.struct !39
  call void @llvm.lifetime.end.p0(i64 40, ptr %8) #7
  %11 = getelementptr inbounds [2 x %struct.ossl_param_st], ptr %6, i64 0, i64 1
  call void @llvm.lifetime.start.p0(i64 40, ptr %9) #7
  call void @OSSL_PARAM_construct_end(ptr dead_on_unwind writable sret(%struct.ossl_param_st) align 8 %9)
  call void @llvm.memcpy.p0.p0.i64(ptr align 8 %11, ptr align 8 %9, i64 40, i1 false), !tbaa.struct !39
  call void @llvm.lifetime.end.p0(i64 40, ptr %9) #7
  %12 = load ptr, ptr @libctx, align 8, !tbaa !13
  %13 = call ptr @EVP_CIPHER_fetch(ptr noundef %12, ptr noundef @.str.161, ptr noundef null)
  store ptr %13, ptr %4, align 8, !tbaa !34
  %14 = call i32 @test_ptr(ptr noundef @.str.24, i32 noundef 642, ptr noundef @.str.160, ptr noundef %13)
  %15 = icmp ne i32 %14, 0
  br i1 %15, label %16, label %54

16:                                               ; preds = %0
  %17 = load ptr, ptr %4, align 8, !tbaa !34
  %18 = call i64 @EVP_CIPHER_get_flags(ptr noundef %17)
  %19 = and i64 %18, 512
  %20 = trunc i64 %19 to i32
  %21 = call i32 @test_int_eq(ptr noundef @.str.24, i32 noundef 643, ptr noundef @.str.162, ptr noundef @.str.34, i32 noundef %20, i32 noundef 0)
  %22 = icmp ne i32 %21, 0
  br i1 %22, label %23, label %54

23:                                               ; preds = %16
  %24 = load ptr, ptr @libctx, align 8, !tbaa !13
  %25 = call ptr @EVP_CIPHER_fetch(ptr noundef %24, ptr noundef @.str.164, ptr noundef null)
  store ptr %25, ptr %3, align 8, !tbaa !34
  %26 = call i32 @test_ptr(ptr noundef @.str.24, i32 noundef 644, ptr noundef @.str.163, ptr noundef %25)
  %27 = icmp ne i32 %26, 0
  br i1 %27, label %28, label %54

28:                                               ; preds = %23
  %29 = load ptr, ptr %3, align 8, !tbaa !34
  %30 = call i64 @EVP_CIPHER_get_flags(ptr noundef %29)
  %31 = and i64 %30, 512
  %32 = trunc i64 %31 to i32
  %33 = call i32 @test_int_ne(ptr noundef @.str.24, i32 noundef 645, ptr noundef @.str.165, ptr noundef @.str.34, i32 noundef %32, i32 noundef 0)
  %34 = icmp ne i32 %33, 0
  br i1 %34, label %35, label %54

35:                                               ; preds = %28
  %36 = call ptr @EVP_CIPHER_CTX_new()
  store ptr %36, ptr %2, align 8, !tbaa !17
  %37 = call i32 @test_ptr(ptr noundef @.str.24, i32 noundef 646, ptr noundef @.str.63, ptr noundef %36)
  %38 = icmp ne i32 %37, 0
  br i1 %38, label %39, label %54

39:                                               ; preds = %35
  %40 = load ptr, ptr %2, align 8, !tbaa !17
  %41 = load ptr, ptr %3, align 8, !tbaa !34
  %42 = getelementptr inbounds [2 x %struct.ossl_param_st], ptr %6, i64 0, i64 0
  %43 = call i32 @EVP_CipherInit_ex2(ptr noundef %40, ptr noundef %41, ptr noundef null, ptr noundef null, i32 noundef 1, ptr noundef %42)
  %44 = icmp ne i32 %43, 0
  %45 = zext i1 %44 to i32
  %46 = call i32 @test_true(ptr noundef @.str.24, i32 noundef 648, ptr noundef @.str.166, i32 noundef %45)
  %47 = icmp ne i32 %46, 0
  br i1 %47, label %48, label %54

48:                                               ; preds = %39
  %49 = load ptr, ptr %2, align 8, !tbaa !17
  %50 = getelementptr inbounds [24 x i8], ptr %5, i64 0, i64 0
  %51 = call i32 @EVP_CIPHER_CTX_rand_key(ptr noundef %49, ptr noundef %50)
  %52 = call i32 @test_int_gt(ptr noundef @.str.24, i32 noundef 649, ptr noundef @.str.167, ptr noundef @.str.34, i32 noundef %51, i32 noundef 0)
  %53 = icmp ne i32 %52, 0
  br label %54

54:                                               ; preds = %48, %39, %35, %28, %23, %16, %0
  %55 = phi i1 [ false, %39 ], [ false, %35 ], [ false, %28 ], [ false, %23 ], [ false, %16 ], [ false, %0 ], [ %53, %48 ]
  %56 = zext i1 %55 to i32
  store i32 %56, ptr %1, align 4, !tbaa !9
  %57 = load ptr, ptr %2, align 8, !tbaa !17
  call void @EVP_CIPHER_CTX_free(ptr noundef %57)
  %58 = load ptr, ptr %3, align 8, !tbaa !34
  call void @EVP_CIPHER_free(ptr noundef %58)
  %59 = load ptr, ptr %4, align 8, !tbaa !34
  call void @EVP_CIPHER_free(ptr noundef %59)
  %60 = load i32, ptr %1, align 4, !tbaa !9
  call void @llvm.lifetime.end.p0(i64 4, ptr %7) #7
  call void @llvm.lifetime.end.p0(i64 80, ptr %6) #7
  call void @llvm.lifetime.end.p0(i64 24, ptr %5) #7
  call void @llvm.lifetime.end.p0(i64 8, ptr %4) #7
  call void @llvm.lifetime.end.p0(i64 8, ptr %3) #7
  call void @llvm.lifetime.end.p0(i64 8, ptr %2) #7
  call void @llvm.lifetime.end.p0(i64 4, ptr %1) #7
  ret i32 %60
}