; Function Attrs: nounwind uwtable
define internal range(i32 0, 2) i32 @test_cipher_tdes_randkey() #1 {
  %1 = alloca [24 x i8], align 16
  %2 = alloca [2 x %struct.ossl_param_st], align 16
  %3 = alloca i32, align 4
  %4 = alloca %struct.ossl_param_st, align 8
  call void @llvm.lifetime.start.p0(i64 24, ptr nonnull %1) #7
  call void @llvm.memset.p0.i64(ptr noundef nonnull align 16 dereferenceable(24) %1, i8 0, i64 24, i1 false)
  call void @llvm.lifetime.start.p0(i64 80, ptr nonnull %2) #7
  call void @llvm.lifetime.start.p0(i64 4, ptr nonnull %3) #7
  store i32 0, ptr %3, align 4, !tbaa !21
  call void @OSSL_PARAM_construct_int(ptr dead_on_unwind nonnull writable sret(%struct.ossl_param_st) align 8 %2, ptr noundef nonnull @.str.159, ptr noundef nonnull %3) #7
  %5 = getelementptr inbounds nuw i8, ptr %2, i64 40
  call void @llvm.lifetime.start.p0(i64 40, ptr nonnull %4) #7
  call void @OSSL_PARAM_construct_end(ptr dead_on_unwind nonnull writable sret(%struct.ossl_param_st) align 8 %4) #7
  call void @llvm.memcpy.p0.p0.i64(ptr noundef nonnull align 8 dereferenceable(40) %5, ptr noundef nonnull align 8 dereferenceable(40) %4, i64 40, i1 false), !tbaa.struct !26
  call void @llvm.lifetime.end.p0(i64 40, ptr nonnull %4) #7
  %6 = load ptr, ptr @libctx, align 8, !tbaa !6
  %7 = call ptr @EVP_CIPHER_fetch(ptr noundef %6, ptr noundef nonnull @.str.161, ptr noundef null) #7
  %8 = call i32 @test_ptr(ptr noundef nonnull @.str.24, i32 noundef 642, ptr noundef nonnull @.str.160, ptr noundef %7) #7
  %.not = icmp eq i32 %8, 0
  br i1 %.not, label %36, label %9

9:                                                ; preds = %0
  %10 = call i64 @EVP_CIPHER_get_flags(ptr noundef %7) #7
  %11 = trunc i64 %10 to i32
  %12 = and i32 %11, 512
  %13 = call i32 @test_int_eq(ptr noundef nonnull @.str.24, i32 noundef 643, ptr noundef nonnull @.str.162, ptr noundef nonnull @.str.34, i32 noundef %12, i32 noundef 0) #7
  %.not9 = icmp eq i32 %13, 0
  br i1 %.not9, label %36, label %14

14:                                               ; preds = %9
  %15 = load ptr, ptr @libctx, align 8, !tbaa !6
  %16 = call ptr @EVP_CIPHER_fetch(ptr noundef %15, ptr noundef nonnull @.str.164, ptr noundef null) #7
  %17 = call i32 @test_ptr(ptr noundef nonnull @.str.24, i32 noundef 644, ptr noundef nonnull @.str.163, ptr noundef %16) #7
  %.not10 = icmp eq i32 %17, 0
  br i1 %.not10, label %36, label %18

18:                                               ; preds = %14
  %19 = call i64 @EVP_CIPHER_get_flags(ptr noundef %16) #7
  %20 = trunc i64 %19 to i32
  %21 = and i32 %20, 512
  %22 = call i32 @test_int_ne(ptr noundef nonnull @.str.24, i32 noundef 645, ptr noundef nonnull @.str.165, ptr noundef nonnull @.str.34, i32 noundef %21, i32 noundef 0) #7
  %.not11 = icmp eq i32 %22, 0
  br i1 %.not11, label %36, label %23

23:                                               ; preds = %18
  %24 = call ptr @EVP_CIPHER_CTX_new() #7
  %25 = call i32 @test_ptr(ptr noundef nonnull @.str.24, i32 noundef 646, ptr noundef nonnull @.str.63, ptr noundef %24) #7
  %.not12 = icmp eq i32 %25, 0
  br i1 %.not12, label %36, label %26

26:                                               ; preds = %23
  %27 = call i32 @EVP_CipherInit_ex2(ptr noundef %24, ptr noundef %16, ptr noundef null, ptr noundef null, i32 noundef 1, ptr noundef nonnull %2) #7
  %28 = icmp ne i32 %27, 0
  %29 = zext i1 %28 to i32
  %30 = call i32 @test_true(ptr noundef nonnull @.str.24, i32 noundef 648, ptr noundef nonnull @.str.166, i32 noundef %29) #7
  %.not13 = icmp eq i32 %30, 0
  br i1 %.not13, label %36, label %31

31:                                               ; preds = %26
  %32 = call i32 @EVP_CIPHER_CTX_rand_key(ptr noundef %24, ptr noundef nonnull %1) #7
  %33 = call i32 @test_int_gt(ptr noundef nonnull @.str.24, i32 noundef 649, ptr noundef nonnull @.str.167, ptr noundef nonnull @.str.34, i32 noundef %32, i32 noundef 0) #7
  %34 = icmp ne i32 %33, 0
  %35 = zext i1 %34 to i32
  br label %36

36:                                               ; preds = %31, %26, %23, %18, %14, %9, %0
  %.08 = phi ptr [ %24, %31 ], [ %24, %26 ], [ %24, %23 ], [ null, %18 ], [ null, %14 ], [ null, %9 ], [ null, %0 ]
  %.0 = phi ptr [ %16, %31 ], [ %16, %26 ], [ %16, %23 ], [ %16, %18 ], [ %16, %14 ], [ null, %9 ], [ null, %0 ]
  %37 = phi i32 [ %35, %31 ], [ 0, %26 ], [ 0, %23 ], [ 0, %18 ], [ 0, %14 ], [ 0, %9 ], [ 0, %0 ]
  call void @EVP_CIPHER_CTX_free(ptr noundef %.08) #7
  call void @EVP_CIPHER_free(ptr noundef %.0) #7
  call void @EVP_CIPHER_free(ptr noundef %7) #7
  call void @llvm.lifetime.end.p0(i64 4, ptr nonnull %3) #7
  call void @llvm.lifetime.end.p0(i64 80, ptr nonnull %2) #7
  call void @llvm.lifetime.end.p0(i64 24, ptr nonnull %1) #7
  ret i32 %37
}